; Function Attrs: mustprogress uwtable
define void @_ZNK8facebook5velox9aggregate8ValueSet4readEPNS0_10BaseVectorEiPKNS0_19HashStringAllocator6HeaderE(ptr nocapture noundef nonnull readnone align 8 dereferenceable(8) %this, ptr noundef %vector, i32 noundef %index, ptr noundef %header) local_unnamed_addr #0 align 2 personality ptr @__gxx_personality_v0 {
entry:
  %stream = alloca %"class.facebook::velox::ByteInputStream", align 8
  %cmp.not = icmp eq ptr %header, null
  br i1 %cmp.not, label %if.then, label %if.end

if.then:                                          ; preds = %entry
  tail call void @llvm.trap()
  unreachable

if.end:                                           ; preds = %entry
  call void @_ZN8facebook5velox19HashStringAllocator11prepareReadEPKNS1_6HeaderE(ptr nonnull sret(%"class.facebook::velox::ByteInputStream") align 8 %stream, ptr noundef nonnull %header)
  invoke void @_ZN8facebook5velox4exec17ContainerRowSerde11deserializeERNS0_15ByteInputStreamEiPNS0_10BaseVectorE(ptr noundef nonnull align 8 dereferenceable(40) %stream, i32 noundef %index, ptr noundef %vector)
          to label %invoke.cont unwind label %lpad

invoke.cont:                                      ; preds = %if.end
  store ptr getelementptr inbounds ({ [6 x ptr] }, ptr @_ZTVN8facebook5velox15ByteInputStreamE, i64 0, i32 0, i64 2), ptr %stream, align 8
  %ranges_.i = getelementptr inbounds i8, ptr %stream, i64 8
  %0 = load ptr, ptr %ranges_.i, align 8
  %tobool.not.i.i.i.i = icmp eq ptr %0, null
  br i1 %tobool.not.i.i.i.i, label %_ZN8facebook5velox15ByteInputStreamD2Ev.exit, label %if.then.i.i.i.i

if.then.i.i.i.i:                                  ; preds = %invoke.cont
  call void @_ZdlPv(ptr noundef nonnull %0) #7
  br label %_ZN8facebook5velox15ByteInputStreamD2Ev.exit

_ZN8facebook5velox15ByteInputStreamD2Ev.exit:     ; preds = %invoke.cont, %if.then.i.i.i.i
  ret void

lpad:                                             ; preds = %if.end
  %1 = landingpad { ptr, i32 }
          cleanup
  store ptr getelementptr inbounds ({ [6 x ptr] }, ptr @_ZTVN8facebook5velox15ByteInputStreamE, i64 0, i32 0, i64 2), ptr %stream, align 8
  %ranges_.i2 = getelementptr inbounds i8, ptr %stream, i64 8
  %2 = load ptr, ptr %ranges_.i2, align 8
  %tobool.not.i.i.i.i3 = icmp eq ptr %2, null
  br i1 %tobool.not.i.i.i.i3, label %_ZN8facebook5velox15ByteInputStreamD2Ev.exit5, label %if.then.i.i.i.i4

if.then.i.i.i.i4:                                 ; preds = %lpad
  call void @_ZdlPv(ptr noundef nonnull %2) #7
  br label %_ZN8facebook5velox15ByteInputStreamD2Ev.exit5

_ZN8facebook5velox15ByteInputStreamD2Ev.exit5:    ; preds = %lpad, %if.then.i.i.i.i4
  resume { ptr, i32 } %1
}